; Function Attrs: nounwind uwtable
define range(i32 -48, 1) i32 @ARKodeResStolerance(ptr noundef %0, double noundef %1) local_unnamed_addr #0 {
  %3 = icmp eq ptr %0, null
  br i1 %3, label %4, label %5

4:                                                ; preds = %2
  tail call void (ptr, i32, i32, ptr, ptr, ptr, ...) @arkProcessError(ptr noundef null, i32 noundef -21, i32 noundef 421, ptr noundef nonnull @__func__.ARKodeResStolerance, ptr noundef nonnull @.str, ptr noundef nonnull @.str.1)
  br label %47

5:                                                ; preds = %2
  %6 = getelementptr inbounds nuw i8, ptr %0, i64 512
  %7 = load i32, ptr %6, align 8, !tbaa !96
  %.not = icmp eq i32 %7, 0
  br i1 %.not, label %8, label %9

8:                                                ; preds = %5
  tail call void (ptr, i32, i32, ptr, ptr, ptr, ...) @arkProcessError(ptr noundef nonnull %0, i32 noundef -48, i32 noundef 430, ptr noundef nonnull @__func__.ARKodeResStolerance, ptr noundef nonnull @.str, ptr noundef nonnull @.str.12)
  br label %47

9:                                                ; preds = %5
  %10 = getelementptr inbounds nuw i8, ptr %0, i64 960
  %11 = load i32, ptr %10, align 8, !tbaa !3
  %12 = icmp eq i32 %11, 0
  br i1 %12, label %13, label %14

13:                                               ; preds = %9
  tail call void (ptr, i32, i32, ptr, ptr, ptr, ...) @arkProcessError(ptr noundef nonnull %0, i32 noundef -23, i32 noundef 438, ptr noundef nonnull @__func__.ARKodeResStolerance, ptr noundef nonnull @.str, ptr noundef nonnull @.str.2)
  br label %47

14:                                               ; preds = %9
  %15 = fcmp olt double %1, 0.000000e+00
  br i1 %15, label %16, label %17

16:                                               ; preds = %14
  tail call void (ptr, i32, i32, ptr, ptr, ptr, ...) @arkProcessError(ptr noundef nonnull %0, i32 noundef -22, i32 noundef 444, ptr noundef nonnull @__func__.ARKodeResStolerance, ptr noundef nonnull @.str, ptr noundef nonnull @.str.13)
  br label %47

17:                                               ; preds = %14
  %18 = fcmp oeq double %1, 0.000000e+00
  %19 = zext i1 %18 to i32
  %20 = getelementptr inbounds nuw i8, ptr %0, i64 80
  store i32 %19, ptr %20, align 8, !tbaa !97
  %21 = getelementptr inbounds nuw i8, ptr %0, i64 576
  %22 = load i32, ptr %21, align 8, !tbaa !55
  %.not26 = icmp eq i32 %22, 0
  br i1 %.not26, label %41, label %23

23:                                               ; preds = %17
  %24 = getelementptr inbounds nuw i8, ptr %0, i64 568
  store ptr null, ptr %24, align 8, !tbaa !57
  %25 = getelementptr inbounds nuw i8, ptr %0, i64 560
  %26 = load ptr, ptr %25, align 8, !tbaa !56
  %27 = tail call ptr @N_VClone(ptr noundef %26) #16
  store ptr %27, ptr %24, align 8, !tbaa !52
  %28 = icmp eq ptr %27, null
  br i1 %28, label %29, label %30

29:                                               ; preds = %23
  tail call void @arkFreeVectors(ptr noundef nonnull %0)
  tail call void (ptr, i32, i32, ptr, ptr, ptr, ...) @arkProcessError(ptr noundef nonnull %0, i32 noundef -20, i32 noundef 458, ptr noundef nonnull @__func__.ARKodeResStolerance, ptr noundef nonnull @.str, ptr noundef nonnull @.str.11)
  br label %47

30:                                               ; preds = %23
  %31 = getelementptr inbounds nuw i8, ptr %0, i64 856
  %32 = load i64, ptr %31, align 8, !tbaa !31
  %33 = getelementptr inbounds nuw i8, ptr %0, i64 872
  %34 = load i64, ptr %33, align 8, !tbaa !53
  %35 = add nsw i64 %34, %32
  store i64 %35, ptr %33, align 8, !tbaa !53
  %36 = getelementptr inbounds nuw i8, ptr %0, i64 864
  %37 = load i64, ptr %36, align 8, !tbaa !32
  %38 = getelementptr inbounds nuw i8, ptr %0, i64 880
  %39 = load i64, ptr %38, align 8, !tbaa !54
  %40 = add nsw i64 %39, %37
  store i64 %40, ptr %38, align 8, !tbaa !54
  store i32 0, ptr %21, align 8, !tbaa !55
  br label %41

41:                                               ; preds = %30, %17
  %42 = getelementptr inbounds nuw i8, ptr %0, i64 64
  store double %1, ptr %42, align 8, !tbaa !98
  %43 = getelementptr inbounds nuw i8, ptr %0, i64 28
  store i32 0, ptr %43, align 4, !tbaa !99
  %44 = getelementptr inbounds nuw i8, ptr %0, i64 84
  store i32 0, ptr %44, align 4, !tbaa !88
  %45 = getelementptr inbounds nuw i8, ptr %0, i64 112
  store ptr @arkRwtSet, ptr %45, align 8, !tbaa !100
  %46 = getelementptr inbounds nuw i8, ptr %0, i64 120
  store ptr %0, ptr %46, align 8, !tbaa !101
  br label %47

47:                                               ; preds = %41, %29, %16, %13, %8, %4
  %.0 = phi i32 [ -21, %4 ], [ -23, %13 ], [ -22, %16 ], [ 0, %41 ], [ -22, %29 ], [ -48, %8 ]
  ret i32 %.0
}